target datalayout = "e-m:e-p270:32:32-p271:32:32-p272:64:64-i64:64-i128:128-f80:128-n8:16:32:64-S128"
target triple = "x86_64-pc-linux-gnu"

%struct.nameData = type { [64 x i8] }
%struct.ItemPointerData = type { %struct.BlockIdData, i16 }
%struct.BlockIdData = type { i16, i16 }
%struct.ForEachState = type { ptr, i32 }
%struct.List = type { i32, i32, i32, ptr, [0 x %union.ListCell] }
%union.ListCell = type { ptr }
%struct.HeapTupleData = type { i32, %struct.ItemPointerData, i32, ptr }
%struct.ScanKeyData = type { i32, i16, i16, i32, i32, %struct.FmgrInfo, i64 }
%struct.FmgrInfo = type { ptr, i32, i16, i8, i8, i8, ptr, ptr, ptr }
%struct.HeapTupleHeaderData = type { %union.anon.0, %struct.ItemPointerData, i16, i16, i8, [0 x i8] }
%union.anon.0 = type { %struct.HeapTupleFields }
%struct.HeapTupleFields = type { i32, i32, %union.anon.1 }
%union.anon.1 = type { i32 }
%struct.FormData_pg_constraint = type { i32, %struct.nameData, i32, i8, i8, i8, i8, i8, i32, i32, i32, i32, i32, i8, i8, i8, i8, i16, i8, i8 }

; Function Attrs: inlinehint nounwind uwtable
define internal i64 @ObjectIdGetDatum(i32 noundef %0) #5 {
  %2 = alloca i32, align 4
  store i32 %0, ptr %2, align 4
  %3 = load i32, ptr %2, align 4
  %4 = zext i32 %3 to i64
  ret i64 %4
}

; Function Attrs: inlinehint nounwind uwtable
define internal ptr @GETSTRUCT(ptr noundef %0) #5 {
  %2 = alloca ptr, align 8
  store ptr %0, ptr %2, align 8
  %3 = load ptr, ptr %2, align 8
  %4 = getelementptr inbounds nuw %struct.HeapTupleData, ptr %3, i32 0, i32 3
  %5 = load ptr, ptr %4, align 8
  %6 = load ptr, ptr %2, align 8
  %7 = getelementptr inbounds nuw %struct.HeapTupleData, ptr %6, i32 0, i32 3
  %8 = load ptr, ptr %7, align 8
  %9 = getelementptr inbounds nuw %struct.HeapTupleHeaderData, ptr %8, i32 0, i32 4
  %10 = load i8, ptr %9, align 2
  %11 = zext i8 %10 to i32
  %12 = sext i32 %11 to i64
  %13 = getelementptr inbounds i8, ptr %5, i64 %12
  ret ptr %13
}

; Function Attrs: nounwind uwtable
define dso_local ptr @heap_truncate_find_FKs(ptr noundef %0) #0 {
  %2 = alloca ptr, align 8
  %3 = alloca ptr, align 8
  %4 = alloca ptr, align 8
  %5 = alloca ptr, align 8
  %6 = alloca ptr, align 8
  %7 = alloca %struct.ScanKeyData, align 8
  %8 = alloca ptr, align 8
  %9 = alloca ptr, align 8
  %10 = alloca ptr, align 8
  %11 = alloca i8, align 1
  %12 = alloca ptr, align 8
  %13 = alloca i32, align 4
  %14 = alloca %struct.ForEachState, align 8
  %15 = alloca i32, align 4
  %16 = alloca ptr, align 8
  store ptr %0, ptr %2, align 8
  call void @llvm.lifetime.start.p0(i64 8, ptr %3) #10
  store ptr null, ptr %3, align 8
  call void @llvm.lifetime.start.p0(i64 8, ptr %4) #10
  call void @llvm.lifetime.start.p0(i64 8, ptr %5) #10
  call void @llvm.lifetime.start.p0(i64 8, ptr %6) #10
  call void @llvm.lifetime.start.p0(i64 72, ptr %7) #10
  call void @llvm.lifetime.start.p0(i64 8, ptr %8) #10
  call void @llvm.lifetime.start.p0(i64 8, ptr %9) #10
  call void @llvm.lifetime.start.p0(i64 8, ptr %10) #10
  call void @llvm.lifetime.start.p0(i64 1, ptr %11) #10
  %17 = load ptr, ptr %2, align 8
  %18 = call ptr @list_copy(ptr noundef %17)
  store ptr %18, ptr %4, align 8
  %19 = call ptr @table_open(i32 noundef 2606, i32 noundef 1)
  store ptr %19, ptr %8, align 8
  br label %20

20:                                               ; preds = %156, %1
  store i8 0, ptr %11, align 1
  store ptr null, ptr %5, align 8
  %21 = load ptr, ptr %8, align 8
  %22 = call ptr @systable_beginscan(ptr noundef %21, i32 noundef 0, i1 noundef zeroext false, ptr noundef null, i32 noundef 0, ptr noundef null)
  store ptr %22, ptr %9, align 8
  br label %23

23:                                               ; preds = %75, %73, %20
  %24 = load ptr, ptr %9, align 8
  %25 = call ptr @systable_getnext(ptr noundef %24)
  store ptr %25, ptr %10, align 8
  %26 = icmp ne ptr %25, null
  br i1 %26, label %27, label %76

27:                                               ; preds = %23
  call void @llvm.lifetime.start.p0(i64 8, ptr %12) #10
  %28 = load ptr, ptr %10, align 8
  %29 = call ptr @GETSTRUCT(ptr noundef %28)
  store ptr %29, ptr %12, align 8
  %30 = load ptr, ptr %12, align 8
  %31 = getelementptr inbounds nuw %struct.FormData_pg_constraint, ptr %30, i32 0, i32 3
  %32 = load i8, ptr %31, align 4
  %33 = sext i8 %32 to i32
  %34 = icmp ne i32 %33, 102
  br i1 %34, label %35, label %36

35:                                               ; preds = %27
  store i32 3, ptr %13, align 4
  br label %73, !llvm.loop !48

36:                                               ; preds = %27
  %37 = load ptr, ptr %4, align 8
  %38 = load ptr, ptr %12, align 8
  %39 = getelementptr inbounds nuw %struct.FormData_pg_constraint, ptr %38, i32 0, i32 12
  %40 = load i32, ptr %39, align 4
  %41 = call zeroext i1 @list_member_oid(ptr noundef %37, i32 noundef %40)
  br i1 %41, label %43, label %42

42:                                               ; preds = %36
  store i32 3, ptr %13, align 4
  br label %73, !llvm.loop !48

43:                                               ; preds = %36
  %44 = load ptr, ptr %12, align 8
  %45 = getelementptr inbounds nuw %struct.FormData_pg_constraint, ptr %44, i32 0, i32 11
  %46 = load i32, ptr %45, align 4
  %47 = icmp ne i32 %46, 0
  br i1 %47, label %48, label %60

48:                                               ; preds = %43
  %49 = load ptr, ptr %5, align 8
  %50 = load ptr, ptr %12, align 8
  %51 = getelementptr inbounds nuw %struct.FormData_pg_constraint, ptr %50, i32 0, i32 11
  %52 = load i32, ptr %51, align 4
  %53 = call zeroext i1 @list_member_oid(ptr noundef %49, i32 noundef %52)
  br i1 %53, label %60, label %54

54:                                               ; preds = %48
  %55 = load ptr, ptr %5, align 8
  %56 = load ptr, ptr %12, align 8
  %57 = getelementptr inbounds nuw %struct.FormData_pg_constraint, ptr %56, i32 0, i32 11
  %58 = load i32, ptr %57, align 4
  %59 = call ptr @lappend_oid(ptr noundef %55, i32 noundef %58)
  store ptr %59, ptr %5, align 8
  br label %60

60:                                               ; preds = %54, %48, %43
  %61 = load ptr, ptr %2, align 8
  %62 = load ptr, ptr %12, align 8
  %63 = getelementptr inbounds nuw %struct.FormData_pg_constraint, ptr %62, i32 0, i32 8
  %64 = load i32, ptr %63, align 4
  %65 = call zeroext i1 @list_member_oid(ptr noundef %61, i32 noundef %64)
  br i1 %65, label %72, label %66

66:                                               ; preds = %60
  %67 = load ptr, ptr %3, align 8
  %68 = load ptr, ptr %12, align 8
  %69 = getelementptr inbounds nuw %struct.FormData_pg_constraint, ptr %68, i32 0, i32 8
  %70 = load i32, ptr %69, align 4
  %71 = call ptr @lappend_oid(ptr noundef %67, i32 noundef %70)
  store ptr %71, ptr %3, align 8
  br label %72

72:                                               ; preds = %66, %60
  store i32 0, ptr %13, align 4
  br label %73

73:                                               ; preds = %72, %42, %35
  call void @llvm.lifetime.end.p0(i64 8, ptr %12) #10
  %74 = load i32, ptr %13, align 4
  switch i32 %74, label %163 [
    i32 0, label %75
    i32 3, label %23
  ]

75:                                               ; preds = %73
  br label %23, !llvm.loop !48

76:                                               ; preds = %23
  %77 = load ptr, ptr %9, align 8
  call void @systable_endscan(ptr noundef %77)
  call void @llvm.lifetime.start.p0(i64 16, ptr %14) #10
  %78 = getelementptr inbounds nuw %struct.ForEachState, ptr %14, i32 0, i32 0
  %79 = load ptr, ptr %5, align 8
  store ptr %79, ptr %78, align 8
  %80 = getelementptr inbounds nuw %struct.ForEachState, ptr %14, i32 0, i32 1
  store i32 0, ptr %80, align 8
  %81 = getelementptr i8, ptr %14, i64 12
  call void @llvm.memset.p0.i64(ptr align 4 %81, i8 0, i64 4, i1 false)
  br label %82

82:                                               ; preds = %148, %76
  %83 = getelementptr inbounds nuw %struct.ForEachState, ptr %14, i32 0, i32 0
  %84 = load ptr, ptr %83, align 8
  %85 = icmp ne ptr %84, null
  br i1 %85, label %86, label %103

86:                                               ; preds = %82
  %87 = getelementptr inbounds nuw %struct.ForEachState, ptr %14, i32 0, i32 1
  %88 = load i32, ptr %87, align 8
  %89 = getelementptr inbounds nuw %struct.ForEachState, ptr %14, i32 0, i32 0
  %90 = load ptr, ptr %89, align 8
  %91 = getelementptr inbounds nuw %struct.List, ptr %90, i32 0, i32 1
  %92 = load i32, ptr %91, align 4
  %93 = icmp slt i32 %88, %92
  br i1 %93, label %94, label %103

94:                                               ; preds = %86
  %95 = getelementptr inbounds nuw %struct.ForEachState, ptr %14, i32 0, i32 0
  %96 = load ptr, ptr %95, align 8
  %97 = getelementptr inbounds nuw %struct.List, ptr %96, i32 0, i32 3
  %98 = load ptr, ptr %97, align 8
  %99 = getelementptr inbounds nuw %struct.ForEachState, ptr %14, i32 0, i32 1
  %100 = load i32, ptr %99, align 8
  %101 = sext i32 %100 to i64
  %102 = getelementptr inbounds %union.ListCell, ptr %98, i64 %101
  store ptr %102, ptr %6, align 8
  br label %104

103:                                              ; preds = %86, %82
  store ptr null, ptr %6, align 8
  br label %104

104:                                              ; preds = %103, %94
  %105 = phi i32 [ 1, %94 ], [ 0, %103 ]
  %106 = icmp ne i32 %105, 0
  br i1 %106, label %108, label %107

107:                                              ; preds = %104
  store i32 5, ptr %13, align 4
  call void @llvm.lifetime.end.p0(i64 16, ptr %14) #10
  br label %152

108:                                              ; preds = %104
  call void @llvm.lifetime.start.p0(i64 4, ptr %15) #10
  %109 = load ptr, ptr %6, align 8
  %110 = load i32, ptr %109, align 8
  store i32 %110, ptr %15, align 4
  %111 = load i32, ptr %15, align 4
  %112 = call i64 @ObjectIdGetDatum(i32 noundef %111)
  call void @ScanKeyInit(ptr noundef %7, i16 noundef signext 1, i16 noundef zeroext 3, i32 noundef 184, i64 noundef %112)
  %113 = load ptr, ptr %8, align 8
  %114 = call ptr @systable_beginscan(ptr noundef %113, i32 noundef 2667, i1 noundef zeroext true, ptr noundef null, i32 noundef 1, ptr noundef %7)
  store ptr %114, ptr %9, align 8
  %115 = load ptr, ptr %9, align 8
  %116 = call ptr @systable_getnext(ptr noundef %115)
  store ptr %116, ptr %10, align 8
  %117 = load ptr, ptr %10, align 8
  %118 = icmp ne ptr %117, null
  br i1 %118, label %119, label %146

119:                                              ; preds = %108
  call void @llvm.lifetime.start.p0(i64 8, ptr %16) #10
  %120 = load ptr, ptr %10, align 8
  %121 = call ptr @GETSTRUCT(ptr noundef %120)
  store ptr %121, ptr %16, align 8
  %122 = load ptr, ptr %16, align 8
  %123 = getelementptr inbounds nuw %struct.FormData_pg_constraint, ptr %122, i32 0, i32 11
  %124 = load i32, ptr %123, align 4
  %125 = icmp ne i32 %124, 0
  br i1 %125, label %126, label %132

126:                                              ; preds = %119
  %127 = load ptr, ptr %5, align 8
  %128 = load ptr, ptr %16, align 8
  %129 = getelementptr inbounds nuw %struct.FormData_pg_constraint, ptr %128, i32 0, i32 11
  %130 = load i32, ptr %129, align 4
  %131 = call ptr @list_append_unique_oid(ptr noundef %127, i32 noundef %130)
  store ptr %131, ptr %5, align 8
  br label %145

132:                                              ; preds = %119
  %133 = load ptr, ptr %4, align 8
  %134 = load ptr, ptr %16, align 8
  %135 = getelementptr inbounds nuw %struct.FormData_pg_constraint, ptr %134, i32 0, i32 12
  %136 = load i32, ptr %135, align 4
  %137 = call zeroext i1 @list_member_oid(ptr noundef %133, i32 noundef %136)
  br i1 %137, label %144, label %138

138:                                              ; preds = %132
  %139 = load ptr, ptr %4, align 8
  %140 = load ptr, ptr %16, align 8
  %141 = getelementptr inbounds nuw %struct.FormData_pg_constraint, ptr %140, i32 0, i32 12
  %142 = load i32, ptr %141, align 4
  %143 = call ptr @lappend_oid(ptr noundef %139, i32 noundef %142)
  store ptr %143, ptr %4, align 8
  store i8 1, ptr %11, align 1
  br label %144

144:                                              ; preds = %138, %132
  br label %145

145:                                              ; preds = %144, %126
  call void @llvm.lifetime.end.p0(i64 8, ptr %16) #10
  br label %146

146:                                              ; preds = %145, %108
  %147 = load ptr, ptr %9, align 8
  call void @systable_endscan(ptr noundef %147)
  call void @llvm.lifetime.end.p0(i64 4, ptr %15) #10
  br label %148

148:                                              ; preds = %146
  %149 = getelementptr inbounds nuw %struct.ForEachState, ptr %14, i32 0, i32 1
  %150 = load i32, ptr %149, align 8
  %151 = add i32 %150, 1
  store i32 %151, ptr %149, align 8
  br label %82, !llvm.loop !49

152:                                              ; preds = %107
  %153 = load ptr, ptr %5, align 8
  call void @list_free(ptr noundef %153)
  %154 = load i8, ptr %11, align 1, !range !6, !noundef !7
  %155 = trunc i8 %154 to i1
  br i1 %155, label %156, label %157

156:                                              ; preds = %152
  br label %20

157:                                              ; preds = %152
  %158 = load ptr, ptr %8, align 8
  call void @table_close(ptr noundef %158, i32 noundef 1)
  %159 = load ptr, ptr %4, align 8
  call void @list_free(ptr noundef %159)
  %160 = load ptr, ptr %3, align 8
  call void @list_sort(ptr noundef %160, ptr noundef @list_oid_cmp)
  %161 = load ptr, ptr %3, align 8
  call void @list_deduplicate_oid(ptr noundef %161)
  %162 = load ptr, ptr %3, align 8
  store i32 1, ptr %13, align 4
  call void @llvm.lifetime.end.p0(i64 1, ptr %11) #10
  call void @llvm.lifetime.end.p0(i64 8, ptr %10) #10
  call void @llvm.lifetime.end.p0(i64 8, ptr %9) #10
  call void @llvm.lifetime.end.p0(i64 8, ptr %8) #10
  call void @llvm.lifetime.end.p0(i64 72, ptr %7) #10
  call void @llvm.lifetime.end.p0(i64 8, ptr %6) #10
  call void @llvm.lifetime.end.p0(i64 8, ptr %5) #10
  call void @llvm.lifetime.end.p0(i64 8, ptr %4) #10
  call void @llvm.lifetime.end.p0(i64 8, ptr %3) #10
  ret ptr %162

163:                                              ; preds = %73
  unreachable
}