; Function Attrs: nounwind uwtable
define dso_local ptr @heap_truncate_find_FKs(ptr noundef %0) local_unnamed_addr #0 {
  %2 = alloca %struct.ScanKeyData, align 8
  call void @llvm.lifetime.start.p0(i64 72, ptr nonnull %2) #11
  %3 = tail call ptr @list_copy(ptr noundef %0) #11
  %4 = tail call ptr @table_open(i32 noundef 2606, i32 noundef 1) #11
  br label %5

5:                                                ; preds = %._crit_edge77, %1
  %.042 = phi ptr [ %3, %1 ], [ %.244, %._crit_edge77 ]
  %.0 = phi ptr [ null, %1 ], [ %.2, %._crit_edge77 ]
  %6 = call ptr @systable_beginscan(ptr noundef %4, i32 noundef 0, i1 noundef zeroext false, ptr noundef null, i32 noundef 0, ptr noundef null) #11
  %7 = call ptr @systable_getnext(ptr noundef %6) #11
  %.not67 = icmp eq ptr %7, null
  br i1 %.not67, label %._crit_edge.thread, label %.lr.ph

._crit_edge.thread:                               ; preds = %5
  call void @systable_endscan(ptr noundef %6) #11
  br label %._crit_edge77.thread

.lr.ph:                                           ; preds = %5, %35
  %8 = phi ptr [ %36, %35 ], [ %7, %5 ]
  %.169 = phi ptr [ %.2, %35 ], [ %.0, %5 ]
  %.04668 = phi ptr [ %.147, %35 ], [ null, %5 ]
  %9 = getelementptr i8, ptr %8, i64 16
  %.val64 = load ptr, ptr %9, align 8
  %10 = getelementptr inbounds nuw i8, ptr %.val64, i64 22
  %11 = load i8, ptr %10, align 2
  %12 = zext i8 %11 to i64
  %13 = getelementptr inbounds nuw i8, ptr %.val64, i64 %12
  %14 = getelementptr inbounds nuw i8, ptr %13, i64 72
  %15 = load i8, ptr %14, align 4
  %.not62 = icmp eq i8 %15, 102
  br i1 %.not62, label %16, label %35, !llvm.loop !34

16:                                               ; preds = %.lr.ph
  %17 = getelementptr inbounds nuw i8, ptr %13, i64 96
  %18 = load i32, ptr %17, align 4
  %19 = call zeroext i1 @list_member_oid(ptr noundef %.042, i32 noundef %18) #11
  br i1 %19, label %20, label %35, !llvm.loop !34

20:                                               ; preds = %16
  %21 = getelementptr inbounds nuw i8, ptr %13, i64 92
  %22 = load i32, ptr %21, align 4
  %.not63 = icmp eq i32 %22, 0
  br i1 %.not63, label %28, label %23

23:                                               ; preds = %20
  %24 = call zeroext i1 @list_member_oid(ptr noundef %.04668, i32 noundef %22) #11
  br i1 %24, label %28, label %25

25:                                               ; preds = %23
  %26 = load i32, ptr %21, align 4
  %27 = call ptr @lappend_oid(ptr noundef %.04668, i32 noundef %26) #11
  br label %28

28:                                               ; preds = %25, %23, %20
  %.248 = phi ptr [ %.04668, %23 ], [ %27, %25 ], [ %.04668, %20 ]
  %29 = getelementptr inbounds nuw i8, ptr %13, i64 80
  %30 = load i32, ptr %29, align 4
  %31 = call zeroext i1 @list_member_oid(ptr noundef %0, i32 noundef %30) #11
  br i1 %31, label %35, label %32

32:                                               ; preds = %28
  %33 = load i32, ptr %29, align 4
  %34 = call ptr @lappend_oid(ptr noundef %.169, i32 noundef %33) #11
  br label %35

35:                                               ; preds = %28, %32, %16, %.lr.ph
  %.147 = phi ptr [ %.04668, %.lr.ph ], [ %.04668, %16 ], [ %.248, %32 ], [ %.248, %28 ]
  %.2 = phi ptr [ %.169, %.lr.ph ], [ %.169, %16 ], [ %34, %32 ], [ %.169, %28 ]
  %36 = call ptr @systable_getnext(ptr noundef %6) #11
  %.not = icmp eq ptr %36, null
  br i1 %.not, label %._crit_edge, label %.lr.ph

._crit_edge:                                      ; preds = %35
  call void @systable_endscan(ptr noundef %6) #11
  %37 = getelementptr inbounds nuw i8, ptr %.147, i64 4
  %.not58 = icmp eq ptr %.147, null
  br i1 %.not58, label %._crit_edge77.thread, label %.lr.ph76

.lr.ph76:                                         ; preds = %._crit_edge
  %38 = getelementptr inbounds nuw i8, ptr %.147, i64 16
  %39 = load i32, ptr %37, align 4
  %40 = icmp sgt i32 %39, 0
  br i1 %40, label %.lr.ph94, label %._crit_edge77.thread

._crit_edge77.thread:                             ; preds = %._crit_edge, %.lr.ph76, %._crit_edge.thread
  %.1.lcssa101.ph = phi ptr [ %.0, %._crit_edge.thread ], [ %.2, %.lr.ph76 ], [ %.2, %._crit_edge ]
  %.349.lcssa.ph = phi ptr [ null, %._crit_edge.thread ], [ null, %._crit_edge ], [ %.147, %.lr.ph76 ]
  call void @list_free(ptr noundef %.349.lcssa.ph) #11
  br label %.loopexit

._crit_edge77:                                    ; preds = %64
  call void @list_free(ptr noundef %.4) #11
  br i1 %.152, label %5, label %.loopexit

.lr.ph94:                                         ; preds = %.lr.ph76, %64
  %indvars.iv = phi i64 [ %indvars.iv.next, %64 ], [ 0, %.lr.ph76 ]
  %.0517193 = phi i1 [ %.152, %64 ], [ false, %.lr.ph76 ]
  %.3497391 = phi ptr [ %.4, %64 ], [ %.147, %.lr.ph76 ]
  %.1437490 = phi ptr [ %.244, %64 ], [ %.042, %.lr.ph76 ]
  %41 = load ptr, ptr %38, align 8
  %42 = getelementptr inbounds nuw %union.ListCell, ptr %41, i64 %indvars.iv
  %43 = load i32, ptr %42, align 8
  %44 = zext i32 %43 to i64
  call void @ScanKeyInit(ptr noundef nonnull %2, i16 noundef signext 1, i16 noundef zeroext 3, i32 noundef 184, i64 noundef %44) #11
  %45 = call ptr @systable_beginscan(ptr noundef %4, i32 noundef 2667, i1 noundef zeroext true, ptr noundef null, i32 noundef 1, ptr noundef nonnull %2) #11
  %46 = call ptr @systable_getnext(ptr noundef %45) #11
  %.not60 = icmp eq ptr %46, null
  br i1 %.not60, label %64, label %47

47:                                               ; preds = %.lr.ph94
  %48 = getelementptr i8, ptr %46, i64 16
  %.val = load ptr, ptr %48, align 8
  %49 = getelementptr inbounds nuw i8, ptr %.val, i64 22
  %50 = load i8, ptr %49, align 2
  %51 = zext i8 %50 to i64
  %52 = getelementptr inbounds nuw i8, ptr %.val, i64 %51
  %53 = getelementptr inbounds nuw i8, ptr %52, i64 92
  %54 = load i32, ptr %53, align 4
  %.not61 = icmp eq i32 %54, 0
  br i1 %.not61, label %57, label %55

55:                                               ; preds = %47
  %56 = call ptr @list_append_unique_oid(ptr noundef %.3497391, i32 noundef %54) #11
  br label %64

57:                                               ; preds = %47
  %58 = getelementptr inbounds nuw i8, ptr %52, i64 96
  %59 = load i32, ptr %58, align 4
  %60 = call zeroext i1 @list_member_oid(ptr noundef %.1437490, i32 noundef %59) #11
  br i1 %60, label %64, label %61

61:                                               ; preds = %57
  %62 = load i32, ptr %58, align 4
  %63 = call ptr @lappend_oid(ptr noundef %.1437490, i32 noundef %62) #11
  br label %64

64:                                               ; preds = %55, %61, %57, %.lr.ph94
  %.152 = phi i1 [ %.0517193, %.lr.ph94 ], [ %.0517193, %55 ], [ %.0517193, %57 ], [ true, %61 ]
  %.4 = phi ptr [ %.3497391, %.lr.ph94 ], [ %56, %55 ], [ %.3497391, %57 ], [ %.3497391, %61 ]
  %.244 = phi ptr [ %.1437490, %.lr.ph94 ], [ %.1437490, %55 ], [ %.1437490, %57 ], [ %63, %61 ]
  call void @systable_endscan(ptr noundef %45) #11
  %indvars.iv.next = add nuw nsw i64 %indvars.iv, 1
  %65 = load i32, ptr %37, align 4
  %66 = sext i32 %65 to i64
  %67 = icmp slt i64 %indvars.iv.next, %66
  br i1 %67, label %.lr.ph94, label %._crit_edge77

.loopexit:                                        ; preds = %._crit_edge77, %._crit_edge77.thread
  %.143.lcssa107 = phi ptr [ %.042, %._crit_edge77.thread ], [ %.244, %._crit_edge77 ]
  %.1.lcssa101106 = phi ptr [ %.1.lcssa101.ph, %._crit_edge77.thread ], [ %.2, %._crit_edge77 ]
  call void @table_close(ptr noundef %4, i32 noundef 1) #11
  call void @list_free(ptr noundef %.143.lcssa107) #11
  call void @list_sort(ptr noundef %.1.lcssa101106, ptr noundef nonnull @list_oid_cmp) #11
  call void @list_deduplicate_oid(ptr noundef %.1.lcssa101106) #11
  call void @llvm.lifetime.end.p0(i64 72, ptr nonnull %2) #11
  ret ptr %.1.lcssa101106
}